; Function Attrs: mustprogress uwtable
define void @_ZN9grpc_core17MakeJwtServiceUrlB5cxx11ERKSt10unique_ptrI19grpc_metadata_batchNS_5Arena13PooledDeleterEEPKN21grpc_call_credentials22GetRequestMetadataArgsE(ptr dead_on_unwind noalias writable sret(%"class.std::__cxx11::basic_string") align 8 %0, ptr noundef nonnull readonly align 8 captures(none) dereferenceable(16) %1, ptr noundef readonly captures(none) %2) local_unnamed_addr #3 personality ptr @__gxx_personality_v0 {
  %4 = alloca %"struct.grpc_core::(anonymous namespace)::ServiceUrlAndMethod", align 8
  call void @llvm.lifetime.start.p0(i64 48, ptr nonnull %4) #18
  call fastcc void @_ZN9grpc_core12_GLOBAL__N_123MakeServiceUrlAndMethodERKSt10unique_ptrI19grpc_metadata_batchNS_5Arena13PooledDeleterEEPKN21grpc_call_credentials22GetRequestMetadataArgsE(ptr dead_on_unwind noalias writable align 8 %4, ptr noundef nonnull align 8 dereferenceable(16) %1, ptr noundef %2)
  %5 = getelementptr inbounds nuw i8, ptr %0, i64 16
  store ptr %5, ptr %0, align 8, !tbaa !3
  %6 = load ptr, ptr %4, align 8, !tbaa !9
  %7 = getelementptr inbounds nuw i8, ptr %4, i64 16
  %8 = icmp eq ptr %6, %7
  br i1 %8, label %9, label %_ZNKSt7__cxx1112basic_stringIcSt11char_traitsIcESaIcEE11_M_is_localEv.exit.i

9:                                                ; preds = %3
  %10 = getelementptr inbounds nuw i8, ptr %4, i64 8
  %11 = load i64, ptr %10, align 8, !tbaa !12
  %12 = icmp ult i64 %11, 16
  call void @llvm.assume(i1 %12)
  %13 = add nuw nsw i64 %11, 1
  call void @llvm.memcpy.p0.p0.i64(ptr noundef nonnull align 8 dereferenceable(1) %5, ptr noundef nonnull align 8 dereferenceable(1) %7, i64 %13, i1 false)
  br label %_ZN9grpc_core12_GLOBAL__N_119ServiceUrlAndMethodD2Ev.exit

_ZNKSt7__cxx1112basic_stringIcSt11char_traitsIcESaIcEE11_M_is_localEv.exit.i: ; preds = %3
  store ptr %6, ptr %0, align 8, !tbaa !9
  %14 = load i64, ptr %7, align 8, !tbaa !13
  store i64 %14, ptr %5, align 8, !tbaa !13
  %.phi.trans.insert = getelementptr inbounds nuw i8, ptr %4, i64 8
  %.pre = load i64, ptr %.phi.trans.insert, align 8, !tbaa !12
  br label %_ZN9grpc_core12_GLOBAL__N_119ServiceUrlAndMethodD2Ev.exit

_ZN9grpc_core12_GLOBAL__N_119ServiceUrlAndMethodD2Ev.exit: ; preds = %9, %_ZNKSt7__cxx1112basic_stringIcSt11char_traitsIcESaIcEE11_M_is_localEv.exit.i
  %15 = phi i64 [ %11, %9 ], [ %.pre, %_ZNKSt7__cxx1112basic_stringIcSt11char_traitsIcESaIcEE11_M_is_localEv.exit.i ]
  %16 = getelementptr inbounds nuw i8, ptr %0, i64 8
  store i64 %15, ptr %16, align 8, !tbaa !12
  call void @llvm.lifetime.end.p0(i64 48, ptr nonnull %4) #18
  ret void
}